; Function Attrs: nounwind uwtable
define zeroext range(i8 0, 2) i8 @l_Array_anyMUnsafe_any___at_Lean_Elab_PartialFixpoint_deriveInduction___spec__2(ptr noundef readonly captures(none) %0, i64 noundef %1, i64 noundef %2) local_unnamed_addr #0 {
  %.not30 = icmp eq i64 %1, %2
  br i1 %.not30, label %lean_dec.exit._crit_edge, label %.lr.ph

.lr.ph:                                           ; preds = %3
  %4 = getelementptr inbounds nuw i8, ptr %0, i64 24
  br label %7

5:                                                ; preds = %lean_dec.exit
  %6 = add i64 %.01531, 1
  %.not = icmp eq i64 %6, %2
  br i1 %.not, label %lean_dec.exit._crit_edge, label %7

7:                                                ; preds = %.lr.ph, %5
  %.01531 = phi i64 [ %1, %.lr.ph ], [ %6, %5 ]
  %8 = getelementptr inbounds nuw [0 x ptr], ptr %4, i64 0, i64 %.01531
  %9 = load ptr, ptr %8, align 8, !tbaa !9
  %10 = ptrtoint ptr %9 to i64
  %11 = and i64 %10, 1
  %.not.i20 = icmp eq i64 %11, 0
  br i1 %.not.i20, label %12, label %lean_dec.exit

12:                                               ; preds = %7
  %.val.i.i = load i32, ptr %9, align 4, !tbaa !4
  %13 = icmp sgt i32 %.val.i.i, 0
  br i1 %13, label %14, label %16, !prof !14

14:                                               ; preds = %12
  %15 = add nuw i32 %.val.i.i, 1
  store i32 %15, ptr %9, align 4, !tbaa !4
  br label %18

16:                                               ; preds = %12
  %.not.i.i = icmp eq i32 %.val.i.i, 0
  br i1 %.not.i.i, label %lean_dec.exit, label %17

17:                                               ; preds = %16
  tail call void @lean_inc_ref_cold(ptr noundef nonnull %9) #6
  %.pr = load i32, ptr %9, align 4, !tbaa !4
  br label %18

18:                                               ; preds = %14, %17
  %19 = phi i32 [ %15, %14 ], [ %.pr, %17 ]
  %20 = icmp sgt i32 %19, 1
  br i1 %20, label %21, label %23, !prof !17

21:                                               ; preds = %18
  %22 = add nsw i32 %19, -1
  store i32 %22, ptr %9, align 4, !tbaa !4
  br label %lean_dec.exit

23:                                               ; preds = %18
  %.not.i = icmp eq i32 %19, 0
  br i1 %.not.i, label %lean_dec.exit, label %24

24:                                               ; preds = %23
  tail call void @lean_dec_ref_cold(ptr noundef nonnull %9) #6
  br label %lean_dec.exit

lean_dec.exit:                                    ; preds = %7, %16, %24, %23, %21
  %.in = lshr i64 %10, 1
  %25 = trunc i64 %.in to i8
  %26 = tail call zeroext i8 @l_Lean_Elab_isLatticeTheoretic(i8 noundef zeroext %25) #6
  %27 = icmp eq i8 %26, 0
  br i1 %27, label %lean_dec.exit._crit_edge, label %5

lean_dec.exit._crit_edge:                         ; preds = %5, %lean_dec.exit, %3
  %.2.ph = phi i8 [ 0, %3 ], [ 1, %lean_dec.exit ], [ 0, %5 ]
  ret i8 %.2.ph
}